libelektratools.so.4 libelektratools4 #MINVER#
* Build-Depends-Package: libelektratools-dev
 _ZN3kdb10printErrorERSoRKNS_3KeyE@Base 0.8.6
 _ZN3kdb12KeyExceptionD0Ev@Base 0.8.6
 _ZN3kdb12KeyExceptionD1Ev@Base 0.8.6
 _ZN3kdb12KeyExceptionD2Ev@Base 0.8.6
 _ZN3kdb13printWarningsERSoRKNS_3KeyE@Base 0.8.6
 _ZN3kdb14KeyInvalidNameD0Ev@Base 0.8.6
 _ZN3kdb14KeyInvalidNameD1Ev@Base 0.8.6
 _ZN3kdb14KeyInvalidNameD2Ev@Base 0.8.6
 _ZN3kdb15KeyTypeMismatchD0Ev@Base 0.8.6
 _ZN3kdb15KeyTypeMismatchD1Ev@Base 0.8.6
 _ZN3kdb15KeyTypeMismatchD2Ev@Base 0.8.6
 _ZN3kdb17KeyTypeConversionD0Ev@Base 0.8.6
 _ZN3kdb17KeyTypeConversionD1Ev@Base 0.8.6
 _ZN3kdb17KeyTypeConversionD2Ev@Base 0.8.6
 _ZN3kdb3Key3delEv@Base 0.8.6
 _ZN3kdb3KeyC1EPKcz@Base 0.8.6
 _ZN3kdb3KeyC1ESsz@Base 0.8.6
 _ZN3kdb3KeyC2EPKcz@Base 0.8.6
 _ZN3kdb3KeyC2ESsz@Base 0.8.6
 _ZN3kdb5tools10GetPlugins9addPluginERNS0_6PluginE@Base 0.8.6
 _ZN3kdb5tools10GetPlugins9serialiseERNS_3KeyERNS_6KeySetE@Base 0.8.6
 _ZN3kdb5tools10GetPlugins9tryPluginERNS0_6PluginE@Base 0.8.6
 _ZN3kdb5tools10GetPlugins9validatedEv@Base 0.8.6
 _ZN3kdb5tools10SetPlugins9addPluginERNS0_6PluginE@Base 0.8.6
 _ZN3kdb5tools10SetPlugins9serialiseERNS_3KeyERNS_6KeySetE@Base 0.8.6
 _ZN3kdb5tools10SetPlugins9tryPluginERNS0_6PluginE@Base 0.8.6
 _ZN3kdb5tools10SetPlugins9validatedEv@Base 0.8.6
 _ZN3kdb5tools11BackendInfoD1Ev@Base 0.8.6
 _ZN3kdb5tools11BackendInfoD2Ev@Base 0.8.6
 _ZN3kdb5tools12ErrorPlugins9addPluginERNS0_6PluginE@Base 0.8.6
 _ZN3kdb5tools12ErrorPlugins9serialiseERNS_3KeyERNS_6KeySetE@Base 0.8.6
 _ZN3kdb5tools12ErrorPlugins9tryPluginERNS0_6PluginE@Base 0.8.6
 _ZN3kdb5tools12ErrorPlugins9validatedEv@Base 0.8.6
 _ZN3kdb5tools12PluginNoInfoD0Ev@Base 0.8.6
 _ZN3kdb5tools12PluginNoInfoD1Ev@Base 0.8.6
 _ZN3kdb5tools12PluginNoInfoD2Ev@Base 0.8.6
 _ZN3kdb5tools13BadPluginNameD0Ev@Base 0.8.6
 _ZN3kdb5tools13BadPluginNameD1Ev@Base 0.8.6
 _ZN3kdb5tools13BadPluginNameD2Ev@Base 0.8.6
 _ZN3kdb5tools13MissingSymbolC1ERKSs@Base 0.8.6
 _ZN3kdb5tools13MissingSymbolC2ERKSs@Base 0.8.6
 _ZN3kdb5tools13MissingSymbolD0Ev@Base 0.8.6
 _ZN3kdb5tools13MissingSymbolD1Ev@Base 0.8.6
 _ZN3kdb5tools13MissingSymbolD2Ev@Base 0.8.6
 _ZN3kdb5tools13StoragePluginD0Ev@Base 0.8.6
 _ZN3kdb5tools13StoragePluginD1Ev@Base 0.8.6
 _ZN3kdb5tools13StoragePluginD2Ev@Base 0.8.6
 _ZN3kdb5tools13ToolExceptionD0Ev@Base 0.8.6
 _ZN3kdb5tools13ToolExceptionD1Ev@Base 0.8.6
 _ZN3kdb5tools13ToolExceptionD2Ev@Base 0.8.6
 _ZN3kdb5tools14ResolverPluginD0Ev@Base 0.8.6
 _ZN3kdb5tools14ResolverPluginD1Ev@Base 0.8.6
 _ZN3kdb5tools14ResolverPluginD2Ev@Base 0.8.6
 _ZN3kdb5tools14SymbolMismatchC1ERKSs@Base 0.8.6
 _ZN3kdb5tools14SymbolMismatchC2ERKSs@Base 0.8.6
 _ZN3kdb5tools14SymbolMismatchD0Ev@Base 0.8.6
 _ZN3kdb5tools14SymbolMismatchD1Ev@Base 0.8.6
 _ZN3kdb5tools14SymbolMismatchD2Ev@Base 0.8.6
 _ZN3kdb5tools14TooManyPluginsC1ESs@Base 0.8.6
 _ZN3kdb5tools14TooManyPluginsC2ESs@Base 0.8.6
 _ZN3kdb5tools14TooManyPluginsD0Ev@Base 0.8.6
 _ZN3kdb5tools14TooManyPluginsD1Ev@Base 0.8.6
 _ZN3kdb5tools14TooManyPluginsD2Ev@Base 0.8.6
 _ZN3kdb5tools15PluginWrongNameD0Ev@Base 0.8.6
 _ZN3kdb5tools15PluginWrongNameD1Ev@Base 0.8.6
 _ZN3kdb5tools15PluginWrongNameD2Ev@Base 0.8.6
 _ZN3kdb5tools17ConflictViolationD0Ev@Base 0.8.6
 _ZN3kdb5tools17ConflictViolationD1Ev@Base 0.8.6
 _ZN3kdb5tools17ConflictViolationD2Ev@Base 0.8.6
 _ZN3kdb5tools17OrderingViolationD0Ev@Base 0.8.6
 _ZN3kdb5tools17OrderingViolationD1Ev@Base 0.8.6
 _ZN3kdb5tools17OrderingViolationD2Ev@Base 0.8.6
 _ZN3kdb5tools19VersionInfoMismatchD0Ev@Base 0.8.6
 _ZN3kdb5tools19VersionInfoMismatchD1Ev@Base 0.8.6
 _ZN3kdb5tools19VersionInfoMismatchD2Ev@Base 0.8.6
 _ZN3kdb5tools20PluginCheckExceptionD0Ev@Base 0.8.6
 _ZN3kdb5tools20PluginCheckExceptionD1Ev@Base 0.8.6
 _ZN3kdb5tools20PluginCheckExceptionD2Ev@Base 0.8.6
 _ZN3kdb5tools21BackendCheckExceptionD0Ev@Base 0.8.6
 _ZN3kdb5tools21BackendCheckExceptionD1Ev@Base 0.8.6
 _ZN3kdb5tools21BackendCheckExceptionD2Ev@Base 0.8.6
 _ZN3kdb5tools21FileNotValidExceptionD0Ev@Base 0.8.6
 _ZN3kdb5tools21FileNotValidExceptionD1Ev@Base 0.8.6
 _ZN3kdb5tools21FileNotValidExceptionD2Ev@Base 0.8.6
 _ZN3kdb5tools21PluginAlreadyInsertedD0Ev@Base 0.8.6
 _ZN3kdb5tools21PluginAlreadyInsertedD1Ev@Base 0.8.6
 _ZN3kdb5tools21PluginAlreadyInsertedD2Ev@Base 0.8.6
 _ZN3kdb5tools26MountpointInvalidExceptionD0Ev@Base 0.8.6
 _ZN3kdb5tools26MountpointInvalidExceptionD1Ev@Base 0.8.6
 _ZN3kdb5tools26MountpointInvalidExceptionD2Ev@Base 0.8.6
 _ZN3kdb5tools6Plugin10lookupInfoESsSs@Base 0.8.6
 _ZN3kdb5tools6Plugin15getNeededConfigEv@Base 0.8.6
 _ZN3kdb5tools6Plugin3getERNS_6KeySetERNS_3KeyE@Base 0.8.6
 _ZN3kdb5tools6Plugin3setERNS_6KeySetERNS_3KeyE@Base 0.8.6
 _ZN3kdb5tools6Plugin4nameEv@Base 0.8.6
 _ZN3kdb5tools6Plugin4openERNS_3KeyE@Base 0.8.6
 _ZN3kdb5tools6Plugin5checkERSt6vectorISsSaISsEE@Base 0.8.6
 _ZN3kdb5tools6Plugin5closeERNS_3KeyE@Base 0.8.6
 _ZN3kdb5tools6Plugin5errorERNS_6KeySetERNS_3KeyE@Base 0.8.6
 _ZN3kdb5tools6Plugin5parseEv@Base 0.8.6
 _ZN3kdb5tools6Plugin6uninitEv@Base 0.8.6
 _ZN3kdb5tools6Plugin7refnameEv@Base 0.8.6
 _ZN3kdb5tools6Plugin8findInfoESsSsSs@Base 0.8.6
 _ZN3kdb5tools6Plugin8loadInfoEv@Base 0.8.6
 _ZN3kdb5tools6PluginC1ERKS1_@Base 0.8.6
 _ZN3kdb5tools6PluginC1ERKSsRNS_6KeySetERKS4_@Base 0.8.6
 _ZN3kdb5tools6PluginC2ERKS1_@Base 0.8.6
 _ZN3kdb5tools6PluginC2ERKSsRNS_6KeySetERKS4_@Base 0.8.6
 _ZN3kdb5tools6PluginD1Ev@Base 0.8.6
 _ZN3kdb5tools6PluginD2Ev@Base 0.8.6
 _ZN3kdb5tools6PluginaSERKS1_@Base 0.8.6
 _ZN3kdb5tools6PluginptEv@Base 0.8.6
 _ZN3kdb5tools7Backend9addPluginESs@Base 0.8.6
 _ZN3kdb5tools7Backend9checkFileESs@Base 0.8.6
 _ZN3kdb5tools7Backend9serialiseERNS_3KeyERNS_6KeySetE@Base 0.8.6
 _ZN3kdb5tools7Backend9tryPluginESs@Base 0.8.6
 _ZN3kdb5tools7Backend9validatedEv@Base 0.8.6
 _ZN3kdb5tools7BackendC1ESsSs@Base 0.8.6
 _ZN3kdb5tools7BackendC2ESsSs@Base 0.8.6
 _ZN3kdb5tools7BackendD1Ev@Base 0.8.6
 _ZN3kdb5tools7BackendD2Ev@Base 0.8.6
 _ZN3kdb5tools7Modules4loadERKSs@Base 0.8.6
 _ZN3kdb5tools7Modules4loadERKSsRKNS_6KeySetE@Base 0.8.6
 _ZN3kdb5tools7ModulesC1Ev@Base 0.8.6
 _ZN3kdb5tools7ModulesC2Ev@Base 0.8.6
 _ZN3kdb5tools7ModulesD1Ev@Base 0.8.6
 _ZN3kdb5tools7ModulesD2Ev@Base 0.8.6
 _ZN3kdb5tools7Plugins12checkStorageERNS0_6PluginE@Base 0.8.6
 _ZN3kdb5tools7Plugins13checkOrderingERNS0_6PluginE@Base 0.8.6
 _ZN3kdb5tools7Plugins13checkResolverERNS0_6PluginE@Base 0.8.6
 _ZN3kdb5tools7Plugins14checkConflictsERNS0_6PluginE@Base 0.8.6
 _ZN3kdb5tools7Plugins14checkPlacementERNS0_6PluginESs@Base 0.8.6
 _ZN3kdb5tools7Plugins16getNeededMissingEv@Base 0.8.6
 _ZN3kdb5tools7Plugins16validateProvidedEv@Base 0.8.6
 _ZN3kdb5tools7Plugins21getRecommendedMissingEv@Base 0.8.6
 _ZN3kdb5tools7Plugins7addInfoERNS0_6PluginE@Base 0.8.6
 _ZN3kdb5tools7Plugins9addPluginERNS0_6PluginESs@Base 0.8.6
 _ZN3kdb5tools7PluginsC1Ev@Base 0.8.6
 _ZN3kdb5tools7PluginsC2Ev@Base 0.8.6
 _ZN3kdb5tools7PluginsD1Ev@Base 0.8.6
 _ZN3kdb5tools7PluginsD2Ev@Base 0.8.6
 _ZN3kdb5tools8Backends14getBackendInfoENS_6KeySetE@Base 0.8.6
 _ZN3kdb5tools8Backends15mountpointsPathE@Base 0.8.6
 _ZN3kdb5tools8NoPluginD0Ev@Base 0.8.6
 _ZN3kdb5tools8NoPluginD1Ev@Base 0.8.6
 _ZN3kdb5tools8NoPluginD2Ev@Base 0.8.6
 _ZN3kdb6KeySetC1Emz@Base 0.8.6
 _ZN3kdb6KeySetC2Emz@Base 0.8.6
 _ZN3kdb9ExceptionD0Ev@Base 0.8.6
 _ZN3kdb9ExceptionD1Ev@Base 0.8.6
 _ZN3kdb9ExceptionD2Ev@Base 0.8.6
 _ZNK3kdb12KeyException4whatEv@Base 0.8.6
 _ZNK3kdb14KeyInvalidName4whatEv@Base 0.8.6
 _ZNK3kdb15KeyTypeMismatch4whatEv@Base 0.8.6
 _ZNK3kdb17KeyTypeConversion4whatEv@Base 0.8.6
 _ZNK3kdb5tools12PluginNoInfo4whatEv@Base 0.8.6
 _ZNK3kdb5tools13BadPluginName4whatEv@Base 0.8.6
 _ZNK3kdb5tools13MissingSymbol4whatEv@Base 0.8.6
 _ZNK3kdb5tools13StoragePlugin4whatEv@Base 0.8.6
 _ZNK3kdb5tools13ToolException4whatEv@Base 0.8.6
 _ZNK3kdb5tools14ResolverPlugin4whatEv@Base 0.8.6
 _ZNK3kdb5tools14SymbolMismatch4whatEv@Base 0.8.6
 _ZNK3kdb5tools14TooManyPlugins4whatEv@Base 0.8.6
 _ZNK3kdb5tools15PluginWrongName4whatEv@Base 0.8.6
 _ZNK3kdb5tools17ConflictViolation4whatEv@Base 0.8.6
 _ZNK3kdb5tools17OrderingViolation4whatEv@Base 0.8.6
 _ZNK3kdb5tools19VersionInfoMismatch4whatEv@Base 0.8.6
 _ZNK3kdb5tools20PluginCheckException4whatEv@Base 0.8.6
 _ZNK3kdb5tools21BackendCheckException4whatEv@Base 0.8.6
 _ZNK3kdb5tools21FileNotValidException4whatEv@Base 0.8.6
 _ZNK3kdb5tools21PluginAlreadyInserted4whatEv@Base 0.8.6
 _ZNK3kdb5tools26MountpointInvalidException4whatEv@Base 0.8.6
 _ZNK3kdb5tools8NoPlugin4whatEv@Base 0.8.6
 _ZNK3kdb9Exception4whatEv@Base 0.8.6
 (optional=templinst)_ZNKSt5ctypeIcE8do_widenEc@Base 0.8.6
 (optional=templinst)_ZNSs12_S_constructIPcEES0_T_S1_RKSaIcESt20forward_iterator_tag@Base 0.8.6
 (optional=templinst)_ZNSt12_Destroy_auxILb0EE9__destroyIPSsEEvT_S3_@Base 0.8.6
 (optional=templinst)_ZNSt15basic_stringbufIcSt11char_traitsIcESaIcEED0Ev@Base 0.8.6
 (optional=templinst)_ZNSt15basic_stringbufIcSt11char_traitsIcESaIcEED1Ev@Base 0.8.6
 (optional=templinst)_ZNSt15basic_stringbufIcSt11char_traitsIcESaIcEED2Ev@Base 0.8.6
 (optional=templinst)_ZNSt3mapISsN3kdb5tools5PlaceESt4lessISsESaISt4pairIKSsS2_EEEixERS6_@Base 0.8.6
 (optional=templinst)_ZNSt4pairIKSsSsED1Ev@Base 0.8.6
 (optional=templinst)_ZNSt4pairIKSsSsED2Ev@Base 0.8.6
 (optional=templinst)_ZNSt6vectorIN3kdb5tools11BackendInfoESaIS2_EE13_M_insert_auxEN9__gnu_cxx17__normal_iteratorIPS2_S4_EERKS2_@Base 0.8.6
 (optional=templinst)_ZNSt6vectorIN3kdb5tools11BackendInfoESaIS2_EED1Ev@Base 0.8.6
 (optional=templinst)_ZNSt6vectorIN3kdb5tools11BackendInfoESaIS2_EED2Ev@Base 0.8.6
 (optional=templinst)_ZNSt6vectorIPN3kdb5tools6PluginESaIS3_EE13_M_insert_auxEN9__gnu_cxx17__normal_iteratorIPS3_S5_EERKS3_@Base 0.8.6
 (optional=templinst)_ZNSt6vectorISsSaISsEE13_M_insert_auxEN9__gnu_cxx17__normal_iteratorIPSsS1_EERKSs@Base 0.8.6
 (optional=templinst)_ZNSt6vectorISsSaISsEED1Ev@Base 0.8.6
 (optional=templinst)_ZNSt6vectorISsSaISsEED2Ev@Base 0.8.6
 (optional=templinst)_ZNSt8_Rb_treeISsSt4pairIKSsN3kdb5tools5PlaceEESt10_Select1stIS5_ESt4lessISsESaIS5_EE17_M_insert_unique_ESt23_Rb_tree_const_iteratorIS5_ERKS5_@Base 0.8.6
 (optional=templinst)_ZNSt8_Rb_treeISsSt4pairIKSsN3kdb5tools5PlaceEESt10_Select1stIS5_ESt4lessISsESaIS5_EE24_M_get_insert_unique_posERS1_@Base 0.8.6
 (optional=templinst)_ZNSt8_Rb_treeISsSt4pairIKSsN3kdb5tools5PlaceEESt10_Select1stIS5_ESt4lessISsESaIS5_EE29_M_get_insert_hint_unique_posESt23_Rb_tree_const_iteratorIS5_ERS1_@Base 0.8.6
 (optional=templinst)_ZNSt8_Rb_treeISsSt4pairIKSsN3kdb5tools5PlaceEESt10_Select1stIS5_ESt4lessISsESaIS5_EE8_M_eraseEPSt13_Rb_tree_nodeIS5_E@Base 0.8.6
 (optional=templinst)_ZNSt8_Rb_treeISsSt4pairIKSsPFvvEESt10_Select1stIS4_ESt4lessISsESaIS4_EE17_M_insert_unique_ESt23_Rb_tree_const_iteratorIS4_ERKS4_@Base 0.8.6
 (optional=templinst)_ZNSt8_Rb_treeISsSt4pairIKSsPFvvEESt10_Select1stIS4_ESt4lessISsESaIS4_EE24_M_get_insert_unique_posERS1_@Base 0.8.6
 (optional=templinst)_ZNSt8_Rb_treeISsSt4pairIKSsPFvvEESt10_Select1stIS4_ESt4lessISsESaIS4_EE29_M_get_insert_hint_unique_posESt23_Rb_tree_const_iteratorIS4_ERS1_@Base 0.8.6
 (optional=templinst)_ZNSt8_Rb_treeISsSt4pairIKSsPFvvEESt10_Select1stIS4_ESt4lessISsESaIS4_EE4findERS1_@Base 0.8.6
 (optional=templinst)_ZNSt8_Rb_treeISsSt4pairIKSsPFvvEESt10_Select1stIS4_ESt4lessISsESaIS4_EE7_M_copyEPKSt13_Rb_tree_nodeIS4_EPSC_@Base 0.8.6
 (optional=templinst)_ZNSt8_Rb_treeISsSt4pairIKSsPFvvEESt10_Select1stIS4_ESt4lessISsESaIS4_EE8_M_eraseEPSt13_Rb_tree_nodeIS4_E@Base 0.8.6
 (optional=templinst)_ZNSt8_Rb_treeISsSt4pairIKSsSsESt10_Select1stIS2_ESt4lessISsESaIS2_EE24_M_get_insert_unique_posERS1_@Base 0.8.6
 (optional=templinst)_ZNSt8_Rb_treeISsSt4pairIKSsSsESt10_Select1stIS2_ESt4lessISsESaIS2_EE29_M_get_insert_hint_unique_posESt23_Rb_tree_const_iteratorIS2_ERS1_@Base 0.8.6
 (optional=templinst)_ZNSt8_Rb_treeISsSt4pairIKSsSsESt10_Select1stIS2_ESt4lessISsESaIS2_EE4findERS1_@Base 0.8.6
 (optional=templinst)_ZNSt8_Rb_treeISsSt4pairIKSsSsESt10_Select1stIS2_ESt4lessISsESaIS2_EE7_M_copyEPKSt13_Rb_tree_nodeIS2_EPSA_@Base 0.8.6
 (optional=templinst)_ZNSt8_Rb_treeISsSt4pairIKSsSsESt10_Select1stIS2_ESt4lessISsESaIS2_EE8_M_eraseEPSt13_Rb_tree_nodeIS2_E@Base 0.8.6
 (optional=templinst)_ZNSt8auto_ptrIN3kdb5tools6PluginEED1Ev@Base 0.8.6
 (optional=templinst)_ZNSt8auto_ptrIN3kdb5tools6PluginEED2Ev@Base 0.8.6
 (optional=templinst)_ZSt9__find_ifIN9__gnu_cxx17__normal_iteratorIPSsSt6vectorISsSaISsEEEENS0_5__ops16_Iter_equals_valIKSsEEET_SB_SB_T0_St26random_access_iterator_tag@Base 0.8.6
 (optional=templinst)_ZStplIcSt11char_traitsIcESaIcEESbIT_T0_T1_ERKS6_S8_@Base 0.8.6
 _ZTIN3kdb12KeyExceptionE@Base 0.8.6
 _ZTIN3kdb14KeyInvalidNameE@Base 0.8.6
 _ZTIN3kdb15KeyTypeMismatchE@Base 0.8.6
 _ZTIN3kdb17KeyTypeConversionE@Base 0.8.6
 _ZTIN3kdb5tools12PluginNoInfoE@Base 0.8.6
 _ZTIN3kdb5tools13BadPluginNameE@Base 0.8.6
 _ZTIN3kdb5tools13MissingSymbolE@Base 0.8.6
 _ZTIN3kdb5tools13StoragePluginE@Base 0.8.6
 _ZTIN3kdb5tools13ToolExceptionE@Base 0.8.6
 _ZTIN3kdb5tools14ResolverPluginE@Base 0.8.6
 _ZTIN3kdb5tools14SymbolMismatchE@Base 0.8.6
 _ZTIN3kdb5tools14TooManyPluginsE@Base 0.8.6
 _ZTIN3kdb5tools15PluginWrongNameE@Base 0.8.6
 _ZTIN3kdb5tools17ConflictViolationE@Base 0.8.6
 _ZTIN3kdb5tools17OrderingViolationE@Base 0.8.6
 _ZTIN3kdb5tools19VersionInfoMismatchE@Base 0.8.6
 _ZTIN3kdb5tools20PluginCheckExceptionE@Base 0.8.6
 _ZTIN3kdb5tools21BackendCheckExceptionE@Base 0.8.6
 _ZTIN3kdb5tools21FileNotValidExceptionE@Base 0.8.6
 _ZTIN3kdb5tools21PluginAlreadyInsertedE@Base 0.8.6
 _ZTIN3kdb5tools26MountpointInvalidExceptionE@Base 0.8.6
 _ZTIN3kdb5tools8NoPluginE@Base 0.8.6
 _ZTIN3kdb9ExceptionE@Base 0.8.6
 _ZTSN3kdb12KeyExceptionE@Base 0.8.6
 _ZTSN3kdb14KeyInvalidNameE@Base 0.8.6
 _ZTSN3kdb15KeyTypeMismatchE@Base 0.8.6
 _ZTSN3kdb17KeyTypeConversionE@Base 0.8.6
 _ZTSN3kdb5tools12PluginNoInfoE@Base 0.8.6
 _ZTSN3kdb5tools13BadPluginNameE@Base 0.8.6
 _ZTSN3kdb5tools13MissingSymbolE@Base 0.8.6
 _ZTSN3kdb5tools13StoragePluginE@Base 0.8.6
 _ZTSN3kdb5tools13ToolExceptionE@Base 0.8.6
 _ZTSN3kdb5tools14ResolverPluginE@Base 0.8.6
 _ZTSN3kdb5tools14SymbolMismatchE@Base 0.8.6
 _ZTSN3kdb5tools14TooManyPluginsE@Base 0.8.6
 _ZTSN3kdb5tools15PluginWrongNameE@Base 0.8.6
 _ZTSN3kdb5tools17ConflictViolationE@Base 0.8.6
 _ZTSN3kdb5tools17OrderingViolationE@Base 0.8.6
 _ZTSN3kdb5tools19VersionInfoMismatchE@Base 0.8.6
 _ZTSN3kdb5tools20PluginCheckExceptionE@Base 0.8.6
 _ZTSN3kdb5tools21BackendCheckExceptionE@Base 0.8.6
 _ZTSN3kdb5tools21FileNotValidExceptionE@Base 0.8.6
 _ZTSN3kdb5tools21PluginAlreadyInsertedE@Base 0.8.6
 _ZTSN3kdb5tools26MountpointInvalidExceptionE@Base 0.8.6
 _ZTSN3kdb5tools8NoPluginE@Base 0.8.6
 _ZTSN3kdb9ExceptionE@Base 0.8.6
 _ZTVN3kdb12KeyExceptionE@Base 0.8.6
 _ZTVN3kdb14KeyInvalidNameE@Base 0.8.6
 _ZTVN3kdb15KeyTypeMismatchE@Base 0.8.6
 _ZTVN3kdb17KeyTypeConversionE@Base 0.8.6
 _ZTVN3kdb5tools12PluginNoInfoE@Base 0.8.6
 _ZTVN3kdb5tools13BadPluginNameE@Base 0.8.6
 _ZTVN3kdb5tools13MissingSymbolE@Base 0.8.6
 _ZTVN3kdb5tools13StoragePluginE@Base 0.8.6
 _ZTVN3kdb5tools13ToolExceptionE@Base 0.8.6
 _ZTVN3kdb5tools14ResolverPluginE@Base 0.8.6
 _ZTVN3kdb5tools14SymbolMismatchE@Base 0.8.6
 _ZTVN3kdb5tools14TooManyPluginsE@Base 0.8.6
 _ZTVN3kdb5tools15PluginWrongNameE@Base 0.8.6
 _ZTVN3kdb5tools17ConflictViolationE@Base 0.8.6
 _ZTVN3kdb5tools17OrderingViolationE@Base 0.8.6
 _ZTVN3kdb5tools19VersionInfoMismatchE@Base 0.8.6
 _ZTVN3kdb5tools20PluginCheckExceptionE@Base 0.8.6
 _ZTVN3kdb5tools21BackendCheckExceptionE@Base 0.8.6
 _ZTVN3kdb5tools21FileNotValidExceptionE@Base 0.8.6
 _ZTVN3kdb5tools21PluginAlreadyInsertedE@Base 0.8.6
 _ZTVN3kdb5tools26MountpointInvalidExceptionE@Base 0.8.6
 _ZTVN3kdb5tools8NoPluginE@Base 0.8.6
 _ZTVN3kdb9ExceptionE@Base 0.8.6
